; Function Attrs: mustprogress nounwind uwtable
define dso_local noundef zeroext i1 @_ZNK4llvm22VPCanonicalIVPHIRecipe11isCanonicalENS_19InductionDescriptor13InductionKindEPNS_7VPValueES4_(ptr noundef nonnull align 8 dereferenceable(160) %0, i32 noundef %1, ptr noundef readnone %2, ptr noundef %3) local_unnamed_addr #0 align 2 {
  %.not = icmp eq i32 %1, 1
  br i1 %.not, label %5, label %_ZNK4llvm11ConstantInt5isOneEv.exit

5:                                                ; preds = %4
  %6 = getelementptr inbounds i8, ptr %0, i64 48
  %7 = tail call noundef i64 @_ZNK4llvm15SmallVectorBaseIjE4sizeEv(ptr noundef nonnull align 8 dereferenceable(16) %6) #19
  %8 = and i64 %7, 4294967295
  %9 = icmp eq i64 %8, 0
  br i1 %9, label %_ZNK4llvm17VPHeaderPHIRecipe13getStartValueEv.exit, label %10

10:                                               ; preds = %5
  %11 = load ptr, ptr %6, align 8
  %12 = load ptr, ptr %11, align 8
  br label %_ZNK4llvm17VPHeaderPHIRecipe13getStartValueEv.exit

_ZNK4llvm17VPHeaderPHIRecipe13getStartValueEv.exit: ; preds = %5, %10
  %13 = phi ptr [ %12, %10 ], [ null, %5 ]
  %.not8 = icmp eq ptr %2, %13
  br i1 %.not8, label %14, label %_ZNK4llvm11ConstantInt5isOneEv.exit

14:                                               ; preds = %_ZNK4llvm17VPHeaderPHIRecipe13getStartValueEv.exit
  %15 = tail call noundef ptr @_ZN4llvm7VPValue17getDefiningRecipeEv(ptr noundef nonnull align 8 dereferenceable(56) %3) #19
  %.not9 = icmp eq ptr %15, null
  br i1 %.not9, label %16, label %_ZNK4llvm11ConstantInt5isOneEv.exit

16:                                               ; preds = %14
  %17 = getelementptr inbounds nuw i8, ptr %3, i64 40
  %18 = load ptr, ptr %17, align 8
  %19 = load i8, ptr %18, align 8
  %.not12 = icmp eq i8 %19, 17
  br i1 %.not12, label %20, label %_ZNK4llvm11ConstantInt5isOneEv.exit

20:                                               ; preds = %16
  %21 = getelementptr inbounds nuw i8, ptr %18, i64 24
  %22 = getelementptr inbounds i8, ptr %18, i64 32
  %23 = load i32, ptr %22, align 8
  %24 = icmp ult i32 %23, 65
  br i1 %24, label %25, label %28

25:                                               ; preds = %20
  %26 = load i64, ptr %21, align 8
  %27 = icmp eq i64 %26, 1
  br label %_ZNK4llvm11ConstantInt5isOneEv.exit

28:                                               ; preds = %20
  %29 = tail call noundef i32 @_ZNK4llvm5APInt25countLeadingZerosSlowCaseEv(ptr noundef nonnull align 8 dereferenceable(12) %21) #20
  %30 = add i32 %23, -1
  %31 = icmp eq i32 %29, %30
  br label %_ZNK4llvm11ConstantInt5isOneEv.exit

_ZNK4llvm11ConstantInt5isOneEv.exit:              ; preds = %28, %25, %16, %14, %_ZNK4llvm17VPHeaderPHIRecipe13getStartValueEv.exit, %4
  %.0 = phi i1 [ false, %4 ], [ false, %_ZNK4llvm17VPHeaderPHIRecipe13getStartValueEv.exit ], [ false, %14 ], [ false, %16 ], [ %27, %25 ], [ %31, %28 ]
  ret i1 %.0
}